(lp1
(F0.95639828483459444
F0.14040789066222137
F-1
tp2
a(F0.29330879130677945
F-0.16514659115937419
F-1
tp3
a(F0.54339903036454129
F-1.1330987370033743
F-1
tp4
a(F0.79503257200616095
F-0.17281093775117679
F-1
tp5
a(F-0.37042563977419202
F-0.15895523858859067
F-1
tp6
a(F-1.070743842518957
F-0.64325103261008376
F-1
tp7
a(F0.43418802633749137
F-0.99188524595525362
F-1
tp8
a(F-0.69412563721465381
F-0.44837885175717279
F-1
tp9
a(F0.041365557717253268
F-0.23043842117874258
F-1
tp10
a(F-0.16807592727693371
F-1.3550240334846828
F-1
tp11
a.