(lp1
(F0.52160018681645626
F-0.25140226278173794
F-1
tp2
a(F-0.075598028042269699
F-0.58821063861386991
F-1
tp3
a(F-0.31896924737521815
F-0.37530434852025041
F-1
tp4
a(F0.22787866682685554
F-0.51057063429047933
F-1
tp5
a(F-0.58194843234294369
F0.075067853036102528
F-1
tp6
a(F0.29234086191583436
F-0.85078891301437287
F-1
tp7
a(F0.88841838851967869
F-0.41781466533756217
F-1
tp8
a(F-0.23558003048470985
F-0.37653810090492157
F-1
tp9
a(F0.086064212773286131
F-0.92263306041797644
F-1
tp10
a(F0.24225220000186212
F-0.4667077385110221
F-1
tp11
a.