(lp1
(F-0.87562739392415245
F0.45447807225566395
F1
tp2
a(F-0.78667306873506149
F0.91702382930571047
F1
tp3
a(F-2.1083211915014708
F0.17533576831883341
F1
tp4
a(F-0.48740609519451894
F0.71311462662447689
F1
tp5
a(F-0.99942991230888178
F1.2824610399004028
F1
tp6
a(F2.845191687953009
F-0.52795378926624226
F1
tp7
a(F1.7481595460039903
F0.96559042441416665
F1
tp8
a(F0.88134927093415538
F-0.34071869483868189
F1
tp9
a(F1.1876959804479981
F0.76528139151985286
F1
tp10
a(F1.6325055260574046
F-0.25062555809758935
F1
tp11
a.