(lp1
(F-0.78667306873506149
F0.91702382930571047
F1
tp2
a(F0.041365557717253268
F-0.23043842117874258
F-1
tp3
a(F-0.87562739392415245
F0.45447807225566395
F1
tp4
a(F-0.48740609519451894
F0.71311462662447689
F1
tp5
a(F1.1876959804479981
F0.76528139151985286
F1
tp6
a(F0.79503257200616095
F-0.17281093775117679
F-1
tp7
a(F-0.37042563977419202
F-0.15895523858859067
F-1
tp8
a(F1.6325055260574046
F-0.25062555809758935
F1
tp9
a(F0.95639828483459444
F0.14040789066222137
F-1
tp10
a(F-0.99942991230888178
F1.2824610399004028
F1
tp11
a(F-1.070743842518957
F-0.64325103261008376
F-1
tp12
a(F-0.16807592727693371
F-1.3550240334846828
F-1
tp13
a(F-0.69412563721465381
F-0.44837885175717279
F-1
tp14
a(F0.43418802633749137
F-0.99188524595525362
F-1
tp15
a(F-2.1083211915014708
F0.17533576831883341
F1
tp16
a(F0.54339903036454129
F-1.1330987370033743
F-1
tp17
a(F2.845191687953009
F-0.52795378926624226
F1
tp18
a(F0.29330879130677945
F-0.16514659115937419
F-1
tp19
a(F1.7481595460039903
F0.96559042441416665
F1
tp20
a(F0.88134927093415538
F-0.34071869483868189
F1
tp21
a.