(lp1
(F-1.5192166347605232
F0.94490007091953798
F1
tp2
a(F1.9881845390194863
F-0.24060338522176561
F1
tp3
a(F-0.47018282562592262
F0.29568231583953197
F1
tp4
a(F0.29234086191583436
F-0.85078891301437287
F-1
tp5
a(F1.9481081814531387
F0.87543314398307537
F1
tp6
a(F0.086064212773286131
F-0.92263306041797644
F-1
tp7
a(F-0.23558003048470985
F-0.37653810090492157
F-1
tp8
a(F-0.58194843234294369
F0.075067853036102528
F-1
tp9
a(F-1.1568537889911807
F2.356675926040956
F1
tp10
a(F0.24225220000186212
F-0.4667077385110221
F-1
tp11
a(F-1.9421757824649251
F1.7230737447563409
F1
tp12
a(F0.88841838851967869
F-0.41781466533756217
F-1
tp13
a(F1.9774080877224418
F-0.31459189052610226
F1
tp14
a(F-0.31896924737521815
F-0.37530434852025041
F-1
tp15
a(F-0.98713183071764521
F1.9943251937376494
F1
tp16
a(F-1.9463066130805891
F0.43504615087549137
F1
tp17
a(F0.52160018681645626
F-0.25140226278173794
F-1
tp18
a(F2.3554171608496852
F1.8143896071481886
F1
tp19
a(F-0.075598028042269699
F-0.58821063861386991
F-1
tp20
a(F0.22787866682685554
F-0.51057063429047933
F-1
tp21
a.