(lp1
(F-1.1568537889911807
F2.356675926040956
F1
tp2
a(F-1.9421757824649251
F1.7230737447563409
F1
tp3
a(F-1.5192166347605232
F0.94490007091953798
F1
tp4
a(F-1.9463066130805891
F0.43504615087549137
F1
tp5
a(F-0.98713183071764521
F1.9943251937376494
F1
tp6
a(F1.9481081814531387
F0.87543314398307537
F1
tp7
a(F-0.47018282562592262
F0.29568231583953197
F1
tp8
a(F1.9881845390194863
F-0.24060338522176561
F1
tp9
a(F1.9774080877224418
F-0.31459189052610226
F1
tp10
a(F2.3554171608496852
F1.8143896071481886
F1
tp11
a.